; Function Attrs: mustprogress uwtable
define dso_local noundef ptr @_ZN2cm6String5c_strEv(ptr noundef nonnull align 8 captures(none) dereferenceable(32) %0) local_unnamed_addr #2 align 2 {
  %2 = getelementptr inbounds nuw i8, ptr %0, i64 24
  %3 = load ptr, ptr %2, align 8, !tbaa !4
  %.not = icmp eq ptr %3, null
  br i1 %.not, label %13, label %4

4:                                                ; preds = %1
  %5 = getelementptr inbounds nuw i8, ptr %0, i64 16
  %6 = load i64, ptr %5, align 8, !tbaa !11
  %7 = getelementptr inbounds nuw i8, ptr %3, i64 %6
  %8 = load i8, ptr %7, align 1, !tbaa !25
  %9 = icmp eq i8 %8, 0
  br i1 %9, label %13, label %10

10:                                               ; preds = %4
  tail call void @_ZN2cm6String34internally_mutate_to_stable_stringEv(ptr noundef nonnull align 8 dereferenceable(32) %0)
  %11 = load ptr, ptr %0, align 8, !tbaa !12
  %12 = load ptr, ptr %11, align 8, !tbaa !33
  br label %13

13:                                               ; preds = %4, %1, %10
  %.0 = phi ptr [ %12, %10 ], [ null, %1 ], [ %3, %4 ]
  ret ptr %.0
}